target datalayout = "e-m:e-p270:32:32-p271:32:32-p272:64:64-i64:64-i128:128-f80:128-n8:16:32:64-S128"
target triple = "x86_64-pc-linux-gnu"

%"class.cv::bioinspired::BasicRetinaFilter" = type { %"class.cv::bioinspired::TemplateBuffer", %"class.std::valarray", i32, i32, %"class.std::valarray", %"class.std::valarray", %"class.std::valarray", float, float, float, float, float, float, float, float }
%"class.cv::bioinspired::TemplateBuffer" = type { ptr, %"class.std::valarray", i64, i64, i64, i64, i64 }
%"class.std::valarray" = type { i64, ptr }

; Function Attrs: inlinehint mustprogress nounwind uwtable
define linkonce_odr hidden noundef i32 @_ZN2cv11bioinspired14TemplateBufferIfE9getNBrowsEv(ptr noundef nonnull align 8 dereferenceable(64) %0) #6 comdat align 2 {
  %2 = alloca ptr, align 8
  store ptr %0, ptr %2, align 8, !tbaa !23
  %3 = load ptr, ptr %2, align 8
  %4 = getelementptr inbounds nuw %"class.cv::bioinspired::TemplateBuffer", ptr %3, i32 0, i32 2
  %5 = load i64, ptr %4, align 8, !tbaa !29
  %6 = trunc i64 %5 to i32
  ret i32 %6
}

; Function Attrs: inlinehint mustprogress nounwind uwtable
define linkonce_odr hidden noundef i32 @_ZN2cv11bioinspired14TemplateBufferIfE12getNBcolumnsEv(ptr noundef nonnull align 8 dereferenceable(64) %0) #6 comdat align 2 {
  %2 = alloca ptr, align 8
  store ptr %0, ptr %2, align 8, !tbaa !23
  %3 = load ptr, ptr %2, align 8
  %4 = getelementptr inbounds nuw %"class.cv::bioinspired::TemplateBuffer", ptr %3, i32 0, i32 3
  %5 = load i64, ptr %4, align 8, !tbaa !30
  %6 = trunc i64 %5 to i32
  ret i32 %6
}

; Function Attrs: inlinehint mustprogress nounwind uwtable
define linkonce_odr hidden noundef i32 @_ZN2cv11bioinspired14TemplateBufferIfE11getNBpixelsEv(ptr noundef nonnull align 8 dereferenceable(64) %0) #6 comdat align 2 {
  %2 = alloca ptr, align 8
  store ptr %0, ptr %2, align 8, !tbaa !23
  %3 = load ptr, ptr %2, align 8
  %4 = getelementptr inbounds nuw %"class.cv::bioinspired::TemplateBuffer", ptr %3, i32 0, i32 5
  %5 = load i64, ptr %4, align 8, !tbaa !32
  %6 = trunc i64 %5 to i32
  ret i32 %6
}

; Function Attrs: mustprogress uwtable
define hidden noundef float @_ZN2cv11bioinspired17BasicRetinaFilter41_verticalAnticausalFilter_returnMeanValueEPfjj(ptr noundef nonnull align 8 dereferenceable(168) %0, ptr noundef %1, i32 noundef %2, i32 noundef %3) #4 align 2 {
  %5 = alloca ptr, align 8
  %6 = alloca ptr, align 8
  %7 = alloca i32, align 4
  %8 = alloca i32, align 4
  %9 = alloca float, align 4
  %10 = alloca ptr, align 8
  %11 = alloca i32, align 4
  %12 = alloca i32, align 4
  %13 = alloca float, align 4
  %14 = alloca ptr, align 8
  %15 = alloca i32, align 4
  store ptr %0, ptr %5, align 8, !tbaa !3
  store ptr %1, ptr %6, align 8, !tbaa !49
  store i32 %2, ptr %7, align 4, !tbaa !8
  store i32 %3, ptr %8, align 4, !tbaa !8
  %16 = load ptr, ptr %5, align 8
  call void @llvm.lifetime.start.p0(i64 4, ptr %9) #3
  store float 0.000000e+00, ptr %9, align 4, !tbaa !26
  call void @llvm.lifetime.start.p0(i64 8, ptr %10) #3
  %17 = load ptr, ptr %6, align 8, !tbaa !49
  %18 = getelementptr inbounds nuw %"class.cv::bioinspired::BasicRetinaFilter", ptr %16, i32 0, i32 0
  %19 = call noundef i32 @_ZN2cv11bioinspired14TemplateBufferIfE11getNBpixelsEv(ptr noundef nonnull align 8 dereferenceable(64) %18)
  %20 = zext i32 %19 to i64
  %21 = getelementptr inbounds nuw float, ptr %17, i64 %20
  %22 = getelementptr inbounds nuw %"class.cv::bioinspired::BasicRetinaFilter", ptr %16, i32 0, i32 0
  %23 = call noundef i32 @_ZN2cv11bioinspired14TemplateBufferIfE12getNBcolumnsEv(ptr noundef nonnull align 8 dereferenceable(64) %22)
  %24 = zext i32 %23 to i64
  %25 = sub i64 0, %24
  %26 = getelementptr inbounds float, ptr %21, i64 %25
  store ptr %26, ptr %10, align 8, !tbaa !49
  call void @llvm.lifetime.start.p0(i64 4, ptr %11) #3
  %27 = load i32, ptr %7, align 4, !tbaa !8
  store i32 %27, ptr %11, align 4, !tbaa !8
  br label %28

28:                                               ; preds = %70, %4
  %29 = load i32, ptr %11, align 4, !tbaa !8
  %30 = load i32, ptr %8, align 4, !tbaa !8
  %31 = icmp ult i32 %29, %30
  br i1 %31, label %33, label %32

32:                                               ; preds = %28
  store i32 2, ptr %12, align 4
  call void @llvm.lifetime.end.p0(i64 4, ptr %11) #3
  br label %73

33:                                               ; preds = %28
  call void @llvm.lifetime.start.p0(i64 4, ptr %13) #3
  store float 0.000000e+00, ptr %13, align 4, !tbaa !26
  call void @llvm.lifetime.start.p0(i64 8, ptr %14) #3
  %34 = load ptr, ptr %10, align 8, !tbaa !49
  %35 = load i32, ptr %11, align 4, !tbaa !8
  %36 = zext i32 %35 to i64
  %37 = getelementptr inbounds nuw float, ptr %34, i64 %36
  store ptr %37, ptr %14, align 8, !tbaa !49
  call void @llvm.lifetime.start.p0(i64 4, ptr %15) #3
  store i32 0, ptr %15, align 4, !tbaa !8
  br label %38

38:                                               ; preds = %66, %33
  %39 = load i32, ptr %15, align 4, !tbaa !8
  %40 = getelementptr inbounds nuw %"class.cv::bioinspired::BasicRetinaFilter", ptr %16, i32 0, i32 0
  %41 = call noundef i32 @_ZN2cv11bioinspired14TemplateBufferIfE9getNBrowsEv(ptr noundef nonnull align 8 dereferenceable(64) %40)
  %42 = icmp ult i32 %39, %41
  br i1 %42, label %44, label %43

43:                                               ; preds = %38
  store i32 5, ptr %12, align 4
  call void @llvm.lifetime.end.p0(i64 4, ptr %15) #3
  br label %69

44:                                               ; preds = %38
  %45 = load ptr, ptr %14, align 8, !tbaa !49
  %46 = load float, ptr %45, align 4, !tbaa !26
  %47 = getelementptr inbounds nuw %"class.cv::bioinspired::BasicRetinaFilter", ptr %16, i32 0, i32 12
  %48 = load float, ptr %47, align 4, !tbaa !46
  %49 = load float, ptr %13, align 4, !tbaa !26
  %50 = call float @llvm.fmuladd.f32(float %48, float %49, float %46)
  store float %50, ptr %13, align 4, !tbaa !26
  %51 = getelementptr inbounds nuw %"class.cv::bioinspired::BasicRetinaFilter", ptr %16, i32 0, i32 14
  %52 = load float, ptr %51, align 4, !tbaa !53
  %53 = load float, ptr %13, align 4, !tbaa !26
  %54 = fmul float %52, %53
  %55 = load ptr, ptr %14, align 8, !tbaa !49
  store float %54, ptr %55, align 4, !tbaa !26
  %56 = load ptr, ptr %14, align 8, !tbaa !49
  %57 = load float, ptr %56, align 4, !tbaa !26
  %58 = load float, ptr %9, align 4, !tbaa !26
  %59 = fadd float %58, %57
  store float %59, ptr %9, align 4, !tbaa !26
  %60 = getelementptr inbounds nuw %"class.cv::bioinspired::BasicRetinaFilter", ptr %16, i32 0, i32 0
  %61 = call noundef i32 @_ZN2cv11bioinspired14TemplateBufferIfE12getNBcolumnsEv(ptr noundef nonnull align 8 dereferenceable(64) %60)
  %62 = load ptr, ptr %14, align 8, !tbaa !49
  %63 = zext i32 %61 to i64
  %64 = sub i64 0, %63
  %65 = getelementptr inbounds float, ptr %62, i64 %64
  store ptr %65, ptr %14, align 8, !tbaa !49
  br label %66

66:                                               ; preds = %44
  %67 = load i32, ptr %15, align 4, !tbaa !8
  %68 = add i32 %67, 1
  store i32 %68, ptr %15, align 4, !tbaa !8
  br label %38, !llvm.loop !76

69:                                               ; preds = %43
  call void @llvm.lifetime.end.p0(i64 8, ptr %14) #3
  call void @llvm.lifetime.end.p0(i64 4, ptr %13) #3
  br label %70

70:                                               ; preds = %69
  %71 = load i32, ptr %11, align 4, !tbaa !8
  %72 = add i32 %71, 1
  store i32 %72, ptr %11, align 4, !tbaa !8
  br label %28, !llvm.loop !77

73:                                               ; preds = %32
  %74 = load float, ptr %9, align 4, !tbaa !26
  %75 = getelementptr inbounds nuw %"class.cv::bioinspired::BasicRetinaFilter", ptr %16, i32 0, i32 0
  %76 = call noundef i32 @_ZN2cv11bioinspired14TemplateBufferIfE11getNBpixelsEv(ptr noundef nonnull align 8 dereferenceable(64) %75)
  %77 = uitofp i32 %76 to float
  %78 = fdiv float %74, %77
  store i32 1, ptr %12, align 4
  call void @llvm.lifetime.end.p0(i64 8, ptr %10) #3
  call void @llvm.lifetime.end.p0(i64 4, ptr %9) #3
  ret float %78
}