; Function Attrs: mustprogress nofree norecurse nosync nounwind memory(argmem: readwrite) uwtable
define hidden noundef float @_ZN2cv11bioinspired17BasicRetinaFilter41_verticalAnticausalFilter_returnMeanValueEPfjj(ptr noundef nonnull readonly align 8 captures(none) dereferenceable(168) %0, ptr noundef captures(none) %1, i32 noundef %2, i32 noundef %3) local_unnamed_addr #9 align 2 {
  %5 = getelementptr inbounds nuw i8, ptr %0, i64 48
  %6 = load i64, ptr %5, align 8, !tbaa !19
  %7 = and i64 %6, 4294967295
  %8 = getelementptr inbounds nuw float, ptr %1, i64 %7
  %9 = getelementptr inbounds nuw i8, ptr %0, i64 32
  %10 = load i64, ptr %9, align 8, !tbaa !17
  %11 = and i64 %10, 4294967295
  %12 = sub nsw i64 0, %11
  %13 = getelementptr inbounds float, ptr %8, i64 %12
  %14 = icmp ult i32 %2, %3
  br i1 %14, label %.lr.ph28, label %._crit_edge29

.lr.ph28:                                         ; preds = %4
  %15 = getelementptr inbounds nuw i8, ptr %0, i64 24
  %16 = load i64, ptr %15, align 8, !tbaa !15
  %17 = trunc i64 %16 to i32
  %.not = icmp eq i32 %17, 0
  %18 = getelementptr inbounds nuw i8, ptr %0, i64 156
  %19 = getelementptr inbounds nuw i8, ptr %0, i64 164
  br i1 %.not, label %._crit_edge29, label %.lr.ph.us.preheader

.lr.ph.us.preheader:                              ; preds = %.lr.ph28
  %20 = zext i32 %2 to i64
  %wide.trip.count = zext i32 %3 to i64
  br label %.lr.ph.us

.lr.ph.us:                                        ; preds = %.lr.ph.us.preheader, %._crit_edge.us
  %indvars.iv = phi i64 [ %20, %.lr.ph.us.preheader ], [ %indvars.iv.next, %._crit_edge.us ]
  %.02025.us = phi float [ 0.000000e+00, %.lr.ph.us.preheader ], [ %28, %._crit_edge.us ]
  %21 = getelementptr inbounds nuw float, ptr %13, i64 %indvars.iv
  br label %22

22:                                               ; preds = %.lr.ph.us, %22
  %.024.us = phi i32 [ 0, %.lr.ph.us ], [ %30, %22 ]
  %.01723.us = phi ptr [ %21, %.lr.ph.us ], [ %29, %22 ]
  %.01822.us = phi float [ 0.000000e+00, %.lr.ph.us ], [ %25, %22 ]
  %.121.us = phi float [ %.02025.us, %.lr.ph.us ], [ %28, %22 ]
  %23 = load float, ptr %.01723.us, align 4, !tbaa !11
  %24 = load float, ptr %18, align 4, !tbaa !65
  %25 = tail call float @llvm.fmuladd.f32(float %24, float %.01822.us, float %23)
  %26 = load float, ptr %19, align 4, !tbaa !83
  %27 = fmul float %26, %25
  store float %27, ptr %.01723.us, align 4, !tbaa !11
  %28 = fadd float %.121.us, %27
  %29 = getelementptr inbounds float, ptr %.01723.us, i64 %12
  %30 = add nuw i32 %.024.us, 1
  %exitcond.not = icmp eq i32 %30, %17
  br i1 %exitcond.not, label %._crit_edge.us, label %22, !llvm.loop !113

._crit_edge.us:                                   ; preds = %22
  %indvars.iv.next = add nuw nsw i64 %indvars.iv, 1
  %exitcond33.not = icmp eq i64 %indvars.iv.next, %wide.trip.count
  br i1 %exitcond33.not, label %._crit_edge29, label %.lr.ph.us, !llvm.loop !114

._crit_edge29:                                    ; preds = %._crit_edge.us, %.lr.ph28, %4
  %.020.lcssa = phi float [ 0.000000e+00, %4 ], [ 0.000000e+00, %.lr.ph28 ], [ %28, %._crit_edge.us ]
  %31 = trunc i64 %6 to i32
  %32 = uitofp i32 %31 to float
  %33 = fdiv float %.020.lcssa, %32
  ret float %33
}